; Function Attrs: mustprogress nofree norecurse nosync nounwind memory(readwrite, inaccessiblemem: none) uwtable
define void @_Z15CopySolveSingleRKSt6vectorIiSaIiEE(ptr noundef nonnull readonly align 8 captures(none) dereferenceable(24) %0) local_unnamed_addr #5 {
  %2 = getelementptr inbounds nuw i8, ptr %0, i64 8
  %3 = load ptr, ptr %2, align 8
  %4 = load ptr, ptr %0, align 8
  %.not = icmp eq ptr %3, %4
  br i1 %.not, label %._crit_edge, label %.lr.ph

.lr.ph:                                           ; preds = %1
  %5 = load ptr, ptr getelementptr inbounds nuw (i8, ptr @param, i64 16), align 8
  %6 = getelementptr inbounds nuw i8, ptr %5, i64 4
  br label %7

7:                                                ; preds = %.lr.ph, %18
  %8 = phi ptr [ %4, %.lr.ph ], [ %19, %18 ]
  %9 = phi ptr [ %3, %.lr.ph ], [ %20, %18 ]
  %10 = phi i64 [ 0, %.lr.ph ], [ %22, %18 ]
  %.08 = phi i32 [ 0, %.lr.ph ], [ %21, %18 ]
  %11 = getelementptr inbounds nuw i32, ptr %8, i64 %10
  %12 = load i32, ptr %11, align 4
  %13 = icmp eq i32 %12, -1
  br i1 %13, label %18, label %14

14:                                               ; preds = %7
  %15 = sext i32 %12 to i64
  %16 = getelementptr inbounds [200 x %struct.futureTricks], ptr %6, i64 0, i64 %15
  %17 = getelementptr inbounds nuw [200 x %struct.futureTricks], ptr %6, i64 0, i64 %10
  tail call void @llvm.memcpy.p0.p0.i64(ptr noundef nonnull align 4 dereferenceable(216) %17, ptr noundef nonnull align 4 dereferenceable(216) %16, i64 216, i1 false)
  %.pre = load ptr, ptr %2, align 8
  %.pre9 = load ptr, ptr %0, align 8
  br label %18

18:                                               ; preds = %7, %14
  %19 = phi ptr [ %8, %7 ], [ %.pre9, %14 ]
  %20 = phi ptr [ %9, %7 ], [ %.pre, %14 ]
  %21 = add i32 %.08, 1
  %22 = zext i32 %21 to i64
  %23 = ptrtoint ptr %20 to i64
  %24 = ptrtoint ptr %19 to i64
  %25 = sub i64 %23, %24
  %26 = ashr exact i64 %25, 2
  %27 = icmp ugt i64 %26, %22
  br i1 %27, label %7, label %._crit_edge, !llvm.loop !4

._crit_edge:                                      ; preds = %18, %1
  ret void
}